                      ; ****************
                      ; * ROM_E000.asm *
                      ; ****************
                              
                      
                      ; system call macro to support the Warte variant 
                      ;               of the MC6809e, the 6809w. This replaces
                      ;               the SWI3 instruction with the SYS #n OS9 
                      ;               style system call instruction.
                      SYS             macro
                                      SWI3
                                      fcb             \1              
                                      endm
                                              
                      
                                              
                      
                      ; **************
                      ; * MEMORY MAP *
                      ; **************
0000                                                  org     $0000
                                                      
0000  E020            SOFT_RESET      fdb     do_RESET        ; Software RESET Vector
0002  E00B            SOFT_NMI        fdb     do_NMI          ; Software NMI Vector
0004  E00E            SOFT_SWI        fdb     do_SWI          ; Software SWI Vector
0006  E011            SOFT_IRQ        fdb     do_IRQ          ; Software IRQ Vector
0008  E014            SOFT_FIRQ       fdb     do_FIRQ         ; Software FIRQ Vector
000A  E017            SOFT_SWI2       fdb     do_SWI2         ; Software SWI2 Vector
000C  E01A            SOFT_SWI3       fdb     do_SWI3         ; Software SWI3 Vector
000E  E01D            SOFT_RSRVD      fdb     do_RSRV         ; Software Motorola Reserved Vector
                      
0010  00              var_ch                  fcb             $00
0011  00              var_at                  fcb             $00
0012  00              var_count               fcb             $00
0013  FF              var_csr                 fcb             $ff
0020                  num_cycles              equ             $20
0014  00              var_cycle               fcb             $00
0015  00              var_mode_index  fcb             $00
                      
0016                                          INCLUDE "mem_map.asm"
                      ;  **********************************************
                      ;  * Allocated 64k Memory Mapped System Symbols *
                      ;  **********************************************
                      
                      ;  Zero-Page Kernal Variables:
0010                  SYSTEM_VARS     equ     $0010   ; start kernal vectors and variables
                      
                      ;  Stack Frames:
0100                  U_STK_BTM       equ     $0100   ; 256 bytes default user stack space
0200                  U_STK_TOP       equ     $0200   ; User Stack initial address
0200                  S_STK_BTM       equ     $0200   ; 512 bytes default system stack space
0400                  S_STK_TOP       equ     $0400   ; System Stack initial address
                      
                      ;  Video Buffer Memory (target = $0400):
0400                  VIDEO_START     equ     $0400   ; Start of 5KB Video Buffer Memory
17FF                  VIDEO_END       equ     $17ff   ; Last Byte of 5KB Video Buffer Memory
                      
                      ;  Graphics Hardware Registers:
1800                  GFX_BEGIN       equ     $1800   ; start of graphics hardware registers
1800                  GFX_FLAGS       equ     $1800   ; (Byte) gfx system flags:
                                                      ;      bit 7: VSYNC
                                                      ;      bit 6: backbuffer enable
                                                      ;      bit 5: swap backbuffers (on write)
                                                      ;      bit 4: reserved
                                                      ;      bits 2-3 = 'Background' graphics modes (20KB buffer)
                                                      ;          0) NONE (forced black background)
                                                      ;          1) Tiled 16x16 mode
                                                      ;          2) Overscan Tile 16x16 mode
                                                      ;          3) 128x80 x 256-Colors
                                                      ;      bits 0-1 = 'Foreground' graphics modes (5KB buffer)
                                                      ;          0) 256x160 x 2-Color (with disable flag)
                                                      ;          1) Glyph Mode (32x20 text)
                                                      ;          2) Glyph Mode (64x40 text)
                                                      ;          3) 128x80 x 16-Color
1801                  GFX_AUX equ     $1801   ; (Byte) gfx auxillary/emulation flags:
                                                      ;      bit 7: 1:fullscreen / 0:windowed
                                                      ;      bit 6: reserved
                                                      ;      bit 5: reserved
                                                      ;      bit 4: reserved
                                                      ;      bit 3: reserved
                                                      ;      bit 0-2: monitor display index (0-7)
1802                  GFX_TIMING_W    equ     $1802   ; (Word) horizontal timing
1804                  GFX_TIMING_H    equ     $1804   ; (Word) vertical timing
1806                  GFX_PAL_INDX    equ     $1806   ; (Byte) gfx palette index (0-15)
1807                  GFX_PAL_DATA    equ     $1807   ; (Word) gfx palette color bits RGBA4444
                      
                      ;  Paged Foreground Graphics Mode Hardware Registers:
1809                  GFX_FG_BEGIN    equ     $1809   ; start of paged foreground gfxmode registers
1809                  GFX_FG_WDTH     equ     $1809   ; (Byte) Foreground Unit Width-1
180A                  GFX_FG_HGHT     equ     $180a   ; (Byte) Foreground Unit Height-1
180A                  GFX_FG_END      equ     $180a   ; end of paged foreground gfxmode registers
                      
                      ;  Paged Background Graphics Mode Hardware Registers:
180B                  GFX_BG_BEGIN    equ     $180b   ; start of paged background gfxmode registers
180B                  GFX_EXT_ADDR    equ     $180b   ; (Word) 20K extended graphics addresses
180D                  GFX_EXT_DATA    equ     $180d   ; (Byte) 20K extended graphics RAM data
180D                  GFX_BG_END      equ     $180d   ; end of paged background gfxmode registers
                      
                      ;  Mouse Cursor Hardware Registers:
180E                  CSR_BEGIN       equ     $180e   ; start of mouse cursor hardware registers
180E                  CSR_XPOS        equ     $180e   ; (Word) horizontal mouse cursor coordinate
1810                  CSR_YPOS        equ     $1810   ; (Word) vertical mouse cursor coordinate
1812                  CSR_XOFS        equ     $1812   ; (Byte) horizontal mouse cursor offset
1813                  CSR_YOFS        equ     $1813   ; (Byte) vertical mouse cursor offset
1814                  CSR_SIZE        equ     $1814   ; (Byte) cursor size (0-15) 0:off
1815                  CSR_SCROLL      equ     $1815   ; (Signed) MouseWheel Scroll: -1, 0, 1
1816                  CSR_FLAGS       equ     $1816   ; (Byte) mouse button flags:
                                                      ;      bits 0-5: button states
                                                      ;      bits 6-7: number of clicks
1817                  CSR_PAL_INDX    equ     $1817   ; (Byte) mouse cursor color palette index (0-15)
1818                  CSR_PAL_DATA    equ     $1818   ; (Word) mouse cursor color palette data RGBA4444
181A                  CSR_BMP_INDX    equ     $181a   ; (Byte) mouse cursor bitmap pixel offset
181B                  CSR_BMP_DATA    equ     $181b   ; (Byte) mouse cursor bitmap pixel index color
181B                  CSR_END equ     $181b   ; end of mouse cursor hardware registers
                      
                      ;  Debugger Hardware Registers:
181C                  DBG_BEGIN       equ     $181c   ; Start of Debugger Hardware Registers
181C                  DBG_BRK_ADDR    equ     $181c   ; (Word) Address of current breakpoint
181E                  DBG_FLAGS       equ     $181e   ; (Byte) Debug Specific Hardware Flags
                                                      ;      bit 7: Debug Enable
                                                      ;      bit 6: Single Step Enable
                                                      ;      bit 5: clear all breakpoints
                                                      ;      bit 4: Toggle Breakpoint at DEBUG_BRK_ADDRESS
                                                      ;      bit 3: FIRQ  (on low to high edge)
                                                      ;      bit 2: IRQ   (on low to high edge)
                                                      ;      bit 1: NMI   (on low to high edge)
                                                      ;      bit 0: RESET (on low to high edge)
181E                  DBG_END equ     $181e   ; End of the Debugger Hardware Registers
                      
                      
181E                  GFX_END equ     $181e   ; end of the GFX Hardware Registers
                      
                      ;  File I/O Hardware Registers:
181E                  FIO_BEGIN       equ     $181e   ; start of file i/o hardware registers
181E                  FIO_FLAGS       equ     $181e   ; (Byte) file i/o system flags:
181F                  FIO_END equ     $181f   ; end of the file i/o Hardware Registers
                      
                      ;  Reserved Hardware:
181F                  RESERVED_HDW    equ     $181f   ; Reserved 2012 bytes ($181F - $1FFB)
                      
                      ;  Memory Bank Selects (16MB):
1FFC                  RAMBANK_SEL_1   equ     $1ffc   ; (Word)Indexes 65536 x 8kb banks
1FFE                  RAMBANK_SEL_2   equ     $1ffe   ; (Word)Indexes 65536 x 8kb banks
                      
                      ;  Standard Usable (from FAST static 32KB) RAM:
2000                  RAM_START       equ     $2000   ; Begin System RAM (32k)
9FFF                  RAM_END equ     $9fff   ; End System RAM
                      
                      ;  Switchable RAM Banks (from SLOW external serial 16MB RAM chip):
A000                  RAM_BANK_1      equ     $a000   ; switched 8KB ram bank 1
C000                  RAM_BANK_2      equ     $c000   ; switched 8KB ram bank 2
                      
                      ;  Bios Kernal ROM:
E000                  BIOS_ROM        equ     $e000   ; Begin BIOS Kernal ROM (8KB)
                      
                      ; ***************************************
                      ; * Read Only Sytem KERNAL ROM          *
                      ; ***************************************
                                            
                       
0016                  SECTION.CODE
E000                                          org     $E000  
                                  ;* Power On Initialization            
E000                  ROM_ENTRY   
E000  CE0201                                  LDU             #U_STK_TOP+1            ; top of user stack     
E003  10CE0401                                LDS     #S_STK_TOP+1            ; top of stack space            
E007  6E9F0000                    JMP     [SOFT_RESET]      
                      
                                  
                                  ;* NMI Vector Handler                     
E00B  7EE023          do_NMI      JMP just_rti
                                  
                                  ;* SWI Vector Handler (do_SWI)   
E00E  7EE023          do_SWI          JMP just_rti
                      
                                  ;* IRQ Vector Handler         
E011  7EE023          do_IRQ      JMP just_rti
                      
                                  ;* FIRQ Vector Handler         
E014  7EE023          do_FIRQ     JMP just_rti
                      
                                  ;* SWI2 Vector Handler         
E017  7EE023          do_SWI2     JMP just_rti
                      
                                  ;* SWI3 Vector Handler         
E01A  7EE023          do_SWI3     JMP just_rti
                      
                                  ;* Reserved Vector Handler
E01D  7EE024          do_RSRV     JMP reset
                      
                                  ;* Reset Vector Handler         
E020  7EE024          do_RESET    JMP reset
                                  
                      ;********************
                      ;* RESET
                      ;**************************                     
                                              
                      ; NOTES:  
                      ;
                      ;                       SYNC still needs to be implemented along with NMI, IRQ, and FIRQ handlers
                      
E023                  just_rti        
E023  3B                                      rti 
                      
E024                  reset           
                      
                      
                                              ; TESTING: fill the first 256 bytes of screen ram 
                                              ;               with ascending values to display
                                              
E024  8620                                    lda             #num_cycles             ; initially clear the cycle variable
E026  B70014                                  sta             var_cycle
                      
                      ;                       ; enable backbuffer mode
                      ;                       lda             GFX_FLAGS
                      ;                       ora             #$40
                      ;                       sta             GFX_FLAGS
                      
                                              ; set up the initial graphics mode 
E029  7F0015                                  clr             var_mode_index  ; start with index 0
E02C  8EE0E0                                  ldx             #mode_data
E02F  B61800                                  lda             GFX_FLAGS
E032  84F0                                    anda    #$f0
E034  AA84                                    ora             ,x
E036  B71800                                  sta             GFX_FLAGS
                      
                                              
                      
                      
                                              ; fill the background buffer with incrementing values
E039  8E0000                                  ldx             #0
E03C                  1
E03C  BF180B                                  stx             GFX_EXT_ADDR
E03F  B7180D                                  sta             GFX_EXT_DATA
E042  4C                                      inca
E043  81FF                                    cmpa    #$ff
E045  2601                                    bne             2f
E047  4F                                      clra
E048                  2
E048  3001                                    leax    1,x
E04A  8C2800                                  cmpx    #$2800
E04D  26ED                                    bne             1b
                      
                      
                      
                      ; ***********************
                      ; *  Pre-Fill and Cycle 
                      ; *  the Display Buffer
                      ; ***********************
                      
E04F  7F0010                                  clr             var_ch                  ; character = 0
E052  7F0011                                  clr             var_at                  ; attribute = 0
E055  7F0012                                  clr             var_count               ; count = 0
E058  8E0400                                  ldx             #VIDEO_START    ; start of display buffer
E05B                  1
E05B  8C17FF                                  cmpx    #VIDEO_END              ; at the end of the buffer?
E05E  2C1D                                    bge             2f                              ; yes, skip to the screen updates
E060  B60010                                  lda             var_ch                  ; load the current character
E063  F60011                                  ldb             var_at                  ; load the current attribute
E066  ED81                                    std             ,x++                    ; store both character and attribute
E068  7C0010                                  inc             var_ch                  ; next character
E06B  7C0012                                  inc             var_count               ; increment count
E06E  B60012                                  lda             var_count               ; load the count
E071  8111                                    cmpa    #17                             ; compare the count with this amount
E073  2DE6                                    blt             1b                              ; loop if count lower than
E075  7C0011                                  inc             var_at                  ; next attribute
E078  7F0012                                  clr             var_count               ; clear the count
E07B  20DE                                    bra             1b                              ; resume the loop
                      
                                              ; INCREMENT THE SCREEN BUFFER
E07D                  2
E07D  8E0400                                  ldx             #VIDEO_START    ; start beginning of video buffer
E080                  4
E080  8C17FF                                  cmpx    #VIDEO_END              ; until the end of the video buffer
E083  2C06                                    bge             3f                              ; restart when past the end
E085  6C80                                    inc             ,x+                             ; increment character
E087  6C80                                    inc             ,x+                             ; increment the attribute
E089  20F5                                    bra             4b                              ; loop until done
E08B                  3
                      
                      
                                              ; INCREMENT THE EXTENDED SCREEN BUFFER
E08B  8E0000                                  ldx             #0
E08E                  8                       
E08E  BF180B                                  stx             GFX_EXT_ADDR
E091  7C180D                                  inc             GFX_EXT_DATA
E094  3001                                    leax    1,x
E096  8C0280                                  cmpx    #640            ;#$0800
E099  26F3                                    bne             8b
                      
                      
                      
                      
                                              ; TOGGLE THE BACKBUFFER
E09B  B61800                                  lda             GFX_FLAGS       ; load current backbuffer
E09E  8820                                    eora    #$20            ; toggle it
E0A0  B71800                                  sta             GFX_FLAGS       ; save the backbuffer
                      
                                              ; COLOR CYCLE THE MOUSE CURSOR
E0A3  8604                                    lda             #4
E0A5  B71817                                  sta             CSR_PAL_INDX
E0A8  FC1818                                  ldd             CSR_PAL_DATA
E0AB  C300A0                                  addd    #$00a0
E0AE  FD1818                                  std             CSR_PAL_DATA            
                      
                                              ; INCREMENT THE CYCLE COUNTER
E0B1  7C0014                                  inc             var_cycle       ; increment the cycle counter
E0B4  B60014                                  lda             var_cycle
E0B7  8120                                    cmpa    #num_cycles             ; max cycles yet?
E0B9  2323                                    bls             continue        ; nope, continue with the main loop
E0BB  7F0014                                  clr             var_cycle       ; reset the cycle count
                      
                                              ; MODE CHANGES
E0BE                  6
E0BE  F60015                                  ldb             var_mode_index
E0C1  7C0015                                  inc             var_mode_index
E0C4  8EE0E0                                  ldx             #mode_data
E0C7  A685                                    lda             b,x
E0C9  81FF                                    cmpa    #$ff
E0CB  270C                                    beq             5f
E0CD  B61800                                  lda             GFX_FLAGS
E0D0  84F0                                    anda    #$f0
E0D2  AA85                                    ora             b,x
E0D4  B71800                                  sta             GFX_FLAGS
E0D7  2005                                    bra             continue
E0D9                  5       
E0D9  7F0015                                  clr             var_mode_index
E0DC  20E0                                    bra             6b
E0DE                  continue
                      
                              
                      
E0DE  209D                                    bra             2b
                      
                      ; ***********************************************************
                      
                      ;mode_data      fcb             $08, $08, $08, $08, $08, $08, $08, $08
                      ;                       fcb             $08, $08, $08, $08, $08, $08, $08, $08
                      
E0E0  0001020304050607 mode_data       fcb             $00, $01, $02, $03, $04, $05, $06, $07
E0E8  08090A0B0C0D0E0F                         fcb             $08, $09, $0a, $0b, $0c, $0d, $0e, $0f
                      
E0F0  FF                                      fcb             $ff
                      
                      ; interrupt vectors
FFF0                                                  org  $fff0
FFF0  E01D            HARD_RSRVD      fdb  do_RSRV    ; Motorola RESERVED Hardware Interrupt Vector
FFF2  E01A            HARD_SWI3       fdb  do_SWI3    ; SWI3 Hardware Interrupt Vector
FFF4  E017            HARD_SWI2       fdb  do_SWI2    ; SWI2 Hardware Interrupt Vector
FFF6  E014            HARD_FIRQ       fdb  do_FIRQ    ; FIRQ Hardware Interrupt Vector
FFF8  E011            HARD_IRQ        fdb  do_IRQ     ; IRQ Hardware Interrupt Vector
FFFA  E00E            HARD_SWI        fdb  do_SWI     ; SWI/SYS Hardware Interrupt Vector
FFFC  E00B            HARD_NMI        fdb  do_NMI     ; NMI Hardware Interrupt Vector
FFFE  E000            HARD_RESET      fdb  ROM_ENTRY  ; RESET Hardware Interrupt Vector
                      
0000                                          END
